; Function Attrs: nounwind sspstrong uwtable
define dso_local ptr @rb_class2name(i64 noundef %0) local_unnamed_addr #0 {
  %2 = alloca i8, align 1
  call void @llvm.lifetime.start.p0(i64 1, ptr nonnull %2) #27
  %3 = tail call i64 @rb_class_real(i64 noundef %0) #29
  %4 = call fastcc i64 @rb_tmp_class_path(i64 noundef %3, ptr noundef %2, ptr noundef nonnull @make_temporary_path)
  %5 = icmp eq i64 %4, 4
  br i1 %5, label %RSTRING_PTR.exit, label %6

6:                                                ; preds = %1
  %7 = inttoptr i64 %4 to ptr
  %8 = load i64, ptr %7, align 8, !tbaa !28, !noalias !52
  %9 = and i64 %8, 8192
  %.not.i.i = icmp eq i64 %9, 0
  %10 = getelementptr inbounds nuw i8, ptr %7, i64 24
  br i1 %.not.i.i, label %RSTRING_PTR.exit, label %11

11:                                               ; preds = %6
  %.sroa.2.0.copyload.i = load ptr, ptr %10, align 8
  br label %RSTRING_PTR.exit

RSTRING_PTR.exit:                                 ; preds = %11, %6, %1
  %.0 = phi ptr [ null, %1 ], [ %.sroa.2.0.copyload.i, %11 ], [ %10, %6 ]
  call void @llvm.lifetime.end.p0(i64 1, ptr nonnull %2) #27
  ret ptr %.0
}